; ModuleID = '29/1701.c'
source_filename = "29/1701.c"
target datalayout = "e-m:e-p270:32:32-p271:32:32-p272:64:64-i64:64-f80:128-n8:16:32:64-S128"
target triple = "x86_64-pc-linux-gnu"

@.str = private unnamed_addr constant [3 x i8] c"%d\00", align 1
@.str.1 = private unnamed_addr constant [7 x i8] c"%.3lf\0A\00", align 1

; Function Attrs: noinline nounwind uwtable
define dso_local double @cal(i32 %0, i32 %1, double %2) #0 {
  %4 = alloca double, align 8
  %5 = alloca i32, align 4
  %6 = alloca i32, align 4
  %7 = alloca double, align 8
  %8 = alloca double, align 8
  store i32 %0, i32* %5, align 4
  store i32 %1, i32* %6, align 4
  store double %2, double* %7, align 8
  %9 = load i32, i32* %5, align 4
  %10 = load i32, i32* %6, align 4
  %11 = icmp eq i32 %9, %10
  br i1 %11, label %12, label %14

12:                                               ; preds = %3
  %13 = load double, double* %7, align 8
  store double %13, double* %4, align 8
  br label %23

14:                                               ; preds = %3
  %15 = load i32, i32* %5, align 4
  %16 = add nsw i32 %15, 1
  %17 = load i32, i32* %6, align 4
  %18 = load double, double* %7, align 8
  %19 = call double @cal(i32 %16, i32 %17, double %18)
  %20 = fdiv double 1.000000e+00, %19
  %21 = fadd double 1.000000e+00, %20
  store double %21, double* %8, align 8
  %22 = load double, double* %8, align 8
  store double %22, double* %4, align 8
  br label %23

23:                                               ; preds = %14, %12
  %24 = load double, double* %4, align 8
  ret double %24
}

; Function Attrs: noinline nounwind uwtable
define dso_local i32 @main() #0 {
  %1 = alloca i32, align 4
  %2 = alloca double, align 8
  %3 = alloca i32, align 4
  %4 = alloca i32, align 4
  %5 = alloca i32, align 4
  %6 = alloca i32, align 4
  %7 = alloca i32, align 4
  %8 = alloca i32, align 4
  %9 = alloca i32, align 4
  store i32 0, i32* %1, align 4
  %10 = call i32 (i8*, ...) @__isoc99_scanf(i8* getelementptr inbounds ([3 x i8], [3 x i8]* @.str, i64 0, i64 0), i32* %7)
  store i32 1, i32* %3, align 4
  br label %11

11:                                               ; preds = %33, %0
  %12 = load i32, i32* %3, align 4
  %13 = load i32, i32* %7, align 4
  %14 = icmp sle i32 %12, %13
  br i1 %14, label %15, label %36

15:                                               ; preds = %11
  %16 = call i32 (i8*, ...) @__isoc99_scanf(i8* getelementptr inbounds ([3 x i8], [3 x i8]* @.str, i64 0, i64 0), i32* %9)
  store double 0.000000e+00, double* %2, align 8
  store i32 0, i32* %4, align 4
  br label %17

17:                                               ; preds = %27, %15
  %18 = load i32, i32* %4, align 4
  %19 = load i32, i32* %9, align 4
  %20 = sub nsw i32 %19, 1
  %21 = icmp sle i32 %18, %20
  br i1 %21, label %22, label %30

22:                                               ; preds = %17
  %23 = load i32, i32* %4, align 4
  %24 = call double @cal(i32 0, i32 %23, double 2.000000e+00)
  %25 = load double, double* %2, align 8
  %26 = fadd double %25, %24
  store double %26, double* %2, align 8
  br label %27

27:                                               ; preds = %22
  %28 = load i32, i32* %4, align 4
  %29 = add nsw i32 %28, 1
  store i32 %29, i32* %4, align 4
  br label %17

30:                                               ; preds = %17
  %31 = load double, double* %2, align 8
  %32 = call i32 (i8*, ...) @printf(i8* getelementptr inbounds ([7 x i8], [7 x i8]* @.str.1, i64 0, i64 0), double %31)
  br label %33

33:                                               ; preds = %30
  %34 = load i32, i32* %3, align 4
  %35 = add nsw i32 %34, 1
  store i32 %35, i32* %3, align 4
  br label %11

36:                                               ; preds = %11
  %37 = load i32, i32* %1, align 4
  ret i32 %37
}

declare dso_local i32 @__isoc99_scanf(i8*, ...) #1

declare dso_local i32 @printf(i8*, ...) #1


!llvm.module.flags = !{!0}
!llvm.ident = !{!1}

!0 = !{i32 1, !"wchar_size", i32 4}
!1 = !{!"clang version 10.0.0-4ubuntu1 "}
